target datalayout = "e-m:e-p270:32:32-p271:32:32-p272:64:64-i64:64-i128:128-f80:128-n8:16:32:64-S128"
target triple = "x86_64-pc-linux-gnu"

%"class.(anonymous namespace)::CXXNameMangler" = type { ptr, ptr, i8, i8, i8, ptr, i32, i32, i32, %"class.(anonymous namespace)::CXXNameMangler::FunctionTypeDepthState", ptr, %"class.(anonymous namespace)::CXXNameMangler::AbiTagState", %"class.llvm::DenseMap.513", %"class.llvm::DenseMap.516" }
%"class.(anonymous namespace)::CXXNameMangler::FunctionTypeDepthState" = type { i32 }
%"class.(anonymous namespace)::CXXNameMangler::AbiTagState" = type { %"class.llvm::SmallVector.508", %"class.llvm::SmallVector.508", ptr, ptr }
%"class.llvm::SmallVector.508" = type { %"class.llvm::SmallVectorImpl.509", %"struct.llvm::SmallVectorStorage.512" }
%"class.llvm::SmallVectorImpl.509" = type { %"class.llvm::SmallVectorTemplateBase.510" }
%"class.llvm::SmallVectorTemplateBase.510" = type { %"class.llvm::SmallVectorTemplateCommon.511" }
%"class.llvm::SmallVectorTemplateCommon.511" = type { %"class.llvm::SmallVectorBase" }
%"class.llvm::SmallVectorBase" = type { ptr, i32, i32 }
%"struct.llvm::SmallVectorStorage.512" = type { [64 x i8] }
%"class.llvm::DenseMap.513" = type <{ ptr, i32, i32, i32, [4 x i8] }>
%"class.llvm::DenseMap.516" = type <{ ptr, i32, i32, i32, [4 x i8] }>
%"class.llvm::raw_ostream" = type { ptr, i32, ptr, ptr, ptr, i8, i32 }

; Function Attrs: mustprogress nounwind uwtable
define linkonce_odr hidden noundef nonnull align 8 dereferenceable(48) ptr @_ZN4llvm11raw_ostreamlsEj(ptr noundef nonnull align 8 dereferenceable(48) %0, i32 noundef %1) #0 comdat align 2 {
  %3 = alloca ptr, align 8
  %4 = alloca i32, align 4
  store ptr %0, ptr %3, align 8
  store i32 %1, ptr %4, align 4
  %5 = load ptr, ptr %3, align 8
  %6 = load i32, ptr %4, align 4
  %7 = zext i32 %6 to i64
  %8 = call noundef nonnull align 8 dereferenceable(48) ptr @_ZN4llvm11raw_ostreamlsEm(ptr noundef nonnull align 8 dereferenceable(48) %5, i64 noundef %7)
  ret ptr %8
}

; Function Attrs: mustprogress nounwind uwtable
define linkonce_odr hidden noundef nonnull align 8 dereferenceable(48) ptr @_ZN4llvm11raw_ostreamlsEc(ptr noundef nonnull align 8 dereferenceable(48) %0, i8 noundef signext %1) #0 comdat align 2 {
  %3 = alloca ptr, align 8
  %4 = alloca ptr, align 8
  %5 = alloca i8, align 1
  store ptr %0, ptr %4, align 8
  store i8 %1, ptr %5, align 1
  %6 = load ptr, ptr %4, align 8
  %7 = getelementptr inbounds nuw %"class.llvm::raw_ostream", ptr %6, i32 0, i32 4
  %8 = load ptr, ptr %7, align 8
  %9 = getelementptr inbounds nuw %"class.llvm::raw_ostream", ptr %6, i32 0, i32 3
  %10 = load ptr, ptr %9, align 8
  %11 = icmp uge ptr %8, %10
  br i1 %11, label %12, label %15

12:                                               ; preds = %2
  %13 = load i8, ptr %5, align 1
  %14 = call noundef nonnull align 8 dereferenceable(48) ptr @_ZN4llvm11raw_ostream5writeEh(ptr noundef nonnull align 8 dereferenceable(48) %6, i8 noundef zeroext %13)
  store ptr %14, ptr %3, align 8
  br label %20

15:                                               ; preds = %2
  %16 = load i8, ptr %5, align 1
  %17 = getelementptr inbounds nuw %"class.llvm::raw_ostream", ptr %6, i32 0, i32 4
  %18 = load ptr, ptr %17, align 8
  %19 = getelementptr inbounds i8, ptr %18, i32 1
  store ptr %19, ptr %17, align 8
  store i8 %16, ptr %18, align 1
  store ptr %6, ptr %3, align 8
  br label %20

20:                                               ; preds = %15, %12
  %21 = load ptr, ptr %3, align 8
  ret ptr %21
}

; Function Attrs: mustprogress nounwind uwtable
define internal void @_ZN12_GLOBAL__N_114CXXNameMangler23mangleTemplateParameterEjj(ptr noundef nonnull align 8 dereferenceable(280) %0, i32 noundef %1, i32 noundef %2) #0 align 2 {
  %4 = alloca ptr, align 8
  %5 = alloca i32, align 4
  %6 = alloca i32, align 4
  store ptr %0, ptr %4, align 8
  store i32 %1, ptr %5, align 4
  store i32 %2, ptr %6, align 4
  %7 = load ptr, ptr %4, align 8
  %8 = getelementptr inbounds nuw %"class.(anonymous namespace)::CXXNameMangler", ptr %7, i32 0, i32 1
  %9 = load ptr, ptr %8, align 8
  %10 = call noundef nonnull align 8 dereferenceable(48) ptr @_ZN4llvm11raw_ostreamlsEc(ptr noundef nonnull align 8 dereferenceable(48) %9, i8 noundef signext 84)
  %11 = getelementptr inbounds nuw %"class.(anonymous namespace)::CXXNameMangler", ptr %7, i32 0, i32 7
  %12 = load i32, ptr %11, align 4
  %13 = load i32, ptr %5, align 4
  %14 = add i32 %13, %12
  store i32 %14, ptr %5, align 4
  %15 = load i32, ptr %5, align 4
  %16 = icmp ne i32 %15, 0
  br i1 %16, label %17, label %25

17:                                               ; preds = %3
  %18 = getelementptr inbounds nuw %"class.(anonymous namespace)::CXXNameMangler", ptr %7, i32 0, i32 1
  %19 = load ptr, ptr %18, align 8
  %20 = call noundef nonnull align 8 dereferenceable(48) ptr @_ZN4llvm11raw_ostreamlsEc(ptr noundef nonnull align 8 dereferenceable(48) %19, i8 noundef signext 76)
  %21 = load i32, ptr %5, align 4
  %22 = sub i32 %21, 1
  %23 = call noundef nonnull align 8 dereferenceable(48) ptr @_ZN4llvm11raw_ostreamlsEj(ptr noundef nonnull align 8 dereferenceable(48) %20, i32 noundef %22)
  %24 = call noundef nonnull align 8 dereferenceable(48) ptr @_ZN4llvm11raw_ostreamlsEc(ptr noundef nonnull align 8 dereferenceable(48) %23, i8 noundef signext 95)
  br label %25

25:                                               ; preds = %17, %3
  %26 = load i32, ptr %6, align 4
  %27 = icmp ne i32 %26, 0
  br i1 %27, label %28, label %34

28:                                               ; preds = %25
  %29 = getelementptr inbounds nuw %"class.(anonymous namespace)::CXXNameMangler", ptr %7, i32 0, i32 1
  %30 = load ptr, ptr %29, align 8
  %31 = load i32, ptr %6, align 4
  %32 = sub i32 %31, 1
  %33 = call noundef nonnull align 8 dereferenceable(48) ptr @_ZN4llvm11raw_ostreamlsEj(ptr noundef nonnull align 8 dereferenceable(48) %30, i32 noundef %32)
  br label %34

34:                                               ; preds = %28, %25
  %35 = getelementptr inbounds nuw %"class.(anonymous namespace)::CXXNameMangler", ptr %7, i32 0, i32 1
  %36 = load ptr, ptr %35, align 8
  %37 = call noundef nonnull align 8 dereferenceable(48) ptr @_ZN4llvm11raw_ostreamlsEc(ptr noundef nonnull align 8 dereferenceable(48) %36, i8 noundef signext 95)
  ret void
}