; Function Attrs: mustprogress nounwind uwtable
define internal fastcc void @_ZN12_GLOBAL__N_114CXXNameMangler23mangleTemplateParameterEjj(ptr nocapture noundef nonnull readonly align 8 dereferenceable(280) %0, i32 noundef %1, i32 noundef %2) unnamed_addr #0 align 2 {
  %4 = getelementptr inbounds nuw i8, ptr %0, i64 8
  %5 = load ptr, ptr %4, align 8
  %6 = getelementptr inbounds nuw i8, ptr %5, i64 32
  %7 = load ptr, ptr %6, align 8
  %8 = getelementptr inbounds nuw i8, ptr %5, i64 24
  %9 = load ptr, ptr %8, align 8
  %.not.i = icmp ult ptr %7, %9
  br i1 %.not.i, label %12, label %10

10:                                               ; preds = %3
  %11 = tail call noundef nonnull align 8 dereferenceable(48) ptr @_ZN4llvm11raw_ostream5writeEh(ptr noundef nonnull align 8 dereferenceable(48) %5, i8 noundef zeroext 84) #24
  br label %_ZN4llvm11raw_ostreamlsEc.exit

12:                                               ; preds = %3
  %13 = getelementptr inbounds i8, ptr %7, i64 1
  store ptr %13, ptr %6, align 8
  store i8 84, ptr %7, align 1
  br label %_ZN4llvm11raw_ostreamlsEc.exit

_ZN4llvm11raw_ostreamlsEc.exit:                   ; preds = %10, %12
  %14 = getelementptr inbounds nuw i8, ptr %0, i64 36
  %15 = load i32, ptr %14, align 4
  %16 = add i32 %15, %1
  %.not = icmp eq i32 %16, 0
  br i1 %.not, label %_ZN4llvm11raw_ostreamlsEc.exit12, label %17

17:                                               ; preds = %_ZN4llvm11raw_ostreamlsEc.exit
  %18 = load ptr, ptr %4, align 8
  %19 = getelementptr inbounds nuw i8, ptr %18, i64 32
  %20 = load ptr, ptr %19, align 8
  %21 = getelementptr inbounds nuw i8, ptr %18, i64 24
  %22 = load ptr, ptr %21, align 8
  %.not.i7 = icmp ult ptr %20, %22
  br i1 %.not.i7, label %25, label %23

23:                                               ; preds = %17
  %24 = tail call noundef nonnull align 8 dereferenceable(48) ptr @_ZN4llvm11raw_ostream5writeEh(ptr noundef nonnull align 8 dereferenceable(48) %18, i8 noundef zeroext 76) #24
  br label %_ZN4llvm11raw_ostreamlsEc.exit9

25:                                               ; preds = %17
  %26 = getelementptr inbounds i8, ptr %20, i64 1
  store ptr %26, ptr %19, align 8
  store i8 76, ptr %20, align 1
  br label %_ZN4llvm11raw_ostreamlsEc.exit9

_ZN4llvm11raw_ostreamlsEc.exit9:                  ; preds = %23, %25
  %.0.i8 = phi ptr [ %24, %23 ], [ %18, %25 ]
  %27 = add i32 %16, -1
  %28 = zext i32 %27 to i64
  %29 = tail call noundef nonnull align 8 dereferenceable(48) ptr @_ZN4llvm11raw_ostreamlsEm(ptr noundef nonnull align 8 dereferenceable(48) %.0.i8, i64 noundef %28) #24
  %30 = getelementptr inbounds nuw i8, ptr %29, i64 32
  %31 = load ptr, ptr %30, align 8
  %32 = getelementptr inbounds nuw i8, ptr %29, i64 24
  %33 = load ptr, ptr %32, align 8
  %.not.i10 = icmp ult ptr %31, %33
  br i1 %.not.i10, label %36, label %34

34:                                               ; preds = %_ZN4llvm11raw_ostreamlsEc.exit9
  %35 = tail call noundef nonnull align 8 dereferenceable(48) ptr @_ZN4llvm11raw_ostream5writeEh(ptr noundef nonnull align 8 dereferenceable(48) %29, i8 noundef zeroext 95) #24
  br label %_ZN4llvm11raw_ostreamlsEc.exit12

36:                                               ; preds = %_ZN4llvm11raw_ostreamlsEc.exit9
  %37 = getelementptr inbounds i8, ptr %31, i64 1
  store ptr %37, ptr %30, align 8
  store i8 95, ptr %31, align 1
  br label %_ZN4llvm11raw_ostreamlsEc.exit12

_ZN4llvm11raw_ostreamlsEc.exit12:                 ; preds = %36, %34, %_ZN4llvm11raw_ostreamlsEc.exit
  %.not6 = icmp eq i32 %2, 0
  br i1 %.not6, label %43, label %38

38:                                               ; preds = %_ZN4llvm11raw_ostreamlsEc.exit12
  %39 = load ptr, ptr %4, align 8
  %40 = add i32 %2, -1
  %41 = zext i32 %40 to i64
  %42 = tail call noundef nonnull align 8 dereferenceable(48) ptr @_ZN4llvm11raw_ostreamlsEm(ptr noundef nonnull align 8 dereferenceable(48) %39, i64 noundef %41) #24
  br label %43

43:                                               ; preds = %38, %_ZN4llvm11raw_ostreamlsEc.exit12
  %44 = load ptr, ptr %4, align 8
  %45 = getelementptr inbounds nuw i8, ptr %44, i64 32
  %46 = load ptr, ptr %45, align 8
  %47 = getelementptr inbounds nuw i8, ptr %44, i64 24
  %48 = load ptr, ptr %47, align 8
  %.not.i13 = icmp ult ptr %46, %48
  br i1 %.not.i13, label %51, label %49

49:                                               ; preds = %43
  %50 = tail call noundef nonnull align 8 dereferenceable(48) ptr @_ZN4llvm11raw_ostream5writeEh(ptr noundef nonnull align 8 dereferenceable(48) %44, i8 noundef zeroext 95) #24
  br label %_ZN4llvm11raw_ostreamlsEc.exit15

51:                                               ; preds = %43
  %52 = getelementptr inbounds i8, ptr %46, i64 1
  store ptr %52, ptr %45, align 8
  store i8 95, ptr %46, align 1
  br label %_ZN4llvm11raw_ostreamlsEc.exit15

_ZN4llvm11raw_ostreamlsEc.exit15:                 ; preds = %49, %51
  ret void
}